target datalayout = "e-m:e-p270:32:32-p271:32:32-p272:64:64-i64:64-i128:128-f80:128-n8:16:32:64-S128"
target triple = "x86_64-pc-linux-gnu"

@.str.33 = private unnamed_addr constant [17 x i8] c"CVodeGetNumSteps\00", align 1
@.str.39 = private unnamed_addr constant [18 x i8] c"CVodeGetWorkSpace\00", align 1
@.str.40 = private unnamed_addr constant [20 x i8] c"CVodeGetNumRhsEvals\00", align 1
@.str.41 = private unnamed_addr constant [25 x i8] c"CVodeGetNumLinSolvSetups\00", align 1
@.str.42 = private unnamed_addr constant [24 x i8] c"CVodeGetNumErrTestFails\00", align 1
@.str.43 = private unnamed_addr constant [27 x i8] c"CVodeGetNumNonlinSolvIters\00", align 1
@.str.44 = private unnamed_addr constant [31 x i8] c"CVodeGetNumNonlinSolvConvFails\00", align 1
@.str.45 = private unnamed_addr constant [21 x i8] c"CVodeGetLinWorkSpace\00", align 1
@.str.46 = private unnamed_addr constant [23 x i8] c"\0AFinal Statistics.. \0A\0A\00", align 1
@.str.47 = private unnamed_addr constant [30 x i8] c"\0AIntermediate Statistics.. \0A\0A\00", align 1
@.str.48 = private unnamed_addr constant [35 x i8] c"lenrw   = %5ld     leniw   = %5ld\0A\00", align 1
@.str.49 = private unnamed_addr constant [35 x i8] c"lenrwLS = %5ld     leniwLS = %5ld\0A\00", align 1
@.str.50 = private unnamed_addr constant [16 x i8] c"nst     = %5ld\0A\00", align 1
@.str.51 = private unnamed_addr constant [35 x i8] c"nfe     = %5ld     nfeLS   = %5ld\0A\00", align 1
@.str.52 = private unnamed_addr constant [35 x i8] c"nni     = %5ld     nli     = %5ld\0A\00", align 1
@.str.53 = private unnamed_addr constant [35 x i8] c"nsetups = %5ld     netf    = %5ld\0A\00", align 1
@.str.54 = private unnamed_addr constant [35 x i8] c"npe     = %5ld     nps     = %5ld\0A\00", align 1
@.str.55 = private unnamed_addr constant [36 x i8] c"ncfn    = %5ld     ncfl    = %5ld\0A\0A\00", align 1
@.str.56 = private unnamed_addr constant [73 x i8] c"======================================================================\0A\0A\00", align 1
@stderr = external global ptr, align 8
@.str.57 = private unnamed_addr constant [55 x i8] c"\0ASUNDIALS_ERROR: %s() failed - returned NULL pointer\0A\0A\00", align 1
@.str.58 = private unnamed_addr constant [48 x i8] c"\0ASUNDIALS_ERROR: %s() failed with retval = %d\0A\0A\00", align 1
@.str.59 = private unnamed_addr constant [53 x i8] c"\0AMEMORY_ERROR: %s() failed - returned NULL pointer\0A\0A\00", align 1

; Function Attrs: nounwind uwtable
define internal i32 @check_retval(ptr noundef %0, ptr noundef %1, i32 noundef %2) #0 {
  %4 = alloca i32, align 4
  %5 = alloca ptr, align 8
  %6 = alloca ptr, align 8
  %7 = alloca i32, align 4
  %8 = alloca ptr, align 8
  %9 = alloca i32, align 4
  store ptr %0, ptr %5, align 8, !tbaa !15
  store ptr %1, ptr %6, align 8, !tbaa !11
  store i32 %2, ptr %7, align 4, !tbaa !4
  call void @llvm.lifetime.start.p0(i64 8, ptr %8) #7
  %10 = load i32, ptr %7, align 4, !tbaa !4
  %11 = icmp eq i32 %10, 0
  br i1 %11, label %12, label %19

12:                                               ; preds = %3
  %13 = load ptr, ptr %5, align 8, !tbaa !15
  %14 = icmp eq ptr %13, null
  br i1 %14, label %15, label %19

15:                                               ; preds = %12
  %16 = load ptr, ptr @stderr, align 8, !tbaa !30
  %17 = load ptr, ptr %6, align 8, !tbaa !11
  %18 = call i32 (ptr, ptr, ...) @fprintf(ptr noundef %16, ptr noundef @.str.57, ptr noundef %17) #7
  store i32 1, ptr %4, align 4
  store i32 1, ptr %9, align 4
  br label %47

19:                                               ; preds = %12, %3
  %20 = load i32, ptr %7, align 4, !tbaa !4
  %21 = icmp eq i32 %20, 1
  br i1 %21, label %22, label %34

22:                                               ; preds = %19
  %23 = load ptr, ptr %5, align 8, !tbaa !15
  store ptr %23, ptr %8, align 8, !tbaa !32
  %24 = load ptr, ptr %8, align 8, !tbaa !32
  %25 = load i32, ptr %24, align 4, !tbaa !4
  %26 = icmp slt i32 %25, 0
  br i1 %26, label %27, label %33

27:                                               ; preds = %22
  %28 = load ptr, ptr @stderr, align 8, !tbaa !30
  %29 = load ptr, ptr %6, align 8, !tbaa !11
  %30 = load ptr, ptr %8, align 8, !tbaa !32
  %31 = load i32, ptr %30, align 4, !tbaa !4
  %32 = call i32 (ptr, ptr, ...) @fprintf(ptr noundef %28, ptr noundef @.str.58, ptr noundef %29, i32 noundef %31) #7
  store i32 1, ptr %4, align 4
  store i32 1, ptr %9, align 4
  br label %47

33:                                               ; preds = %22
  br label %45

34:                                               ; preds = %19
  %35 = load i32, ptr %7, align 4, !tbaa !4
  %36 = icmp eq i32 %35, 2
  br i1 %36, label %37, label %44

37:                                               ; preds = %34
  %38 = load ptr, ptr %5, align 8, !tbaa !15
  %39 = icmp eq ptr %38, null
  br i1 %39, label %40, label %44

40:                                               ; preds = %37
  %41 = load ptr, ptr @stderr, align 8, !tbaa !30
  %42 = load ptr, ptr %6, align 8, !tbaa !11
  %43 = call i32 (ptr, ptr, ...) @fprintf(ptr noundef %41, ptr noundef @.str.59, ptr noundef %42) #7
  store i32 1, ptr %4, align 4
  store i32 1, ptr %9, align 4
  br label %47

44:                                               ; preds = %37, %34
  br label %45

45:                                               ; preds = %44, %33
  br label %46

46:                                               ; preds = %45
  store i32 0, ptr %4, align 4
  store i32 1, ptr %9, align 4
  br label %47

47:                                               ; preds = %46, %40, %27, %15
  call void @llvm.lifetime.end.p0(i64 8, ptr %8) #7
  %48 = load i32, ptr %4, align 4
  ret i32 %48
}

; Function Attrs: nounwind uwtable
define internal void @PrintStats(ptr noundef %0, i32 noundef %1, i32 noundef %2) #0 {
  %4 = alloca ptr, align 8
  %5 = alloca i32, align 4
  %6 = alloca i32, align 4
  %7 = alloca i64, align 8
  %8 = alloca i64, align 8
  %9 = alloca i64, align 8
  %10 = alloca i64, align 8
  %11 = alloca i64, align 8
  %12 = alloca i64, align 8
  %13 = alloca i64, align 8
  %14 = alloca i64, align 8
  %15 = alloca i64, align 8
  %16 = alloca i64, align 8
  %17 = alloca i64, align 8
  %18 = alloca i64, align 8
  %19 = alloca i64, align 8
  %20 = alloca i64, align 8
  %21 = alloca i64, align 8
  %22 = alloca i64, align 8
  %23 = alloca i64, align 8
  %24 = alloca i64, align 8
  %25 = alloca i32, align 4
  store ptr %0, ptr %4, align 8, !tbaa !15
  store i32 %1, ptr %5, align 4, !tbaa !4
  store i32 %2, ptr %6, align 4, !tbaa !4
  call void @llvm.lifetime.start.p0(i64 8, ptr %7) #7
  call void @llvm.lifetime.start.p0(i64 8, ptr %8) #7
  call void @llvm.lifetime.start.p0(i64 8, ptr %9) #7
  call void @llvm.lifetime.start.p0(i64 8, ptr %10) #7
  call void @llvm.lifetime.start.p0(i64 8, ptr %11) #7
  call void @llvm.lifetime.start.p0(i64 8, ptr %12) #7
  call void @llvm.lifetime.start.p0(i64 8, ptr %13) #7
  call void @llvm.lifetime.start.p0(i64 8, ptr %14) #7
  call void @llvm.lifetime.start.p0(i64 8, ptr %15) #7
  call void @llvm.lifetime.start.p0(i64 8, ptr %16) #7
  call void @llvm.lifetime.start.p0(i64 8, ptr %17) #7
  call void @llvm.lifetime.start.p0(i64 8, ptr %18) #7
  call void @llvm.lifetime.start.p0(i64 8, ptr %19) #7
  call void @llvm.lifetime.start.p0(i64 8, ptr %20) #7
  call void @llvm.lifetime.start.p0(i64 8, ptr %21) #7
  call void @llvm.lifetime.start.p0(i64 8, ptr %22) #7
  call void @llvm.lifetime.start.p0(i64 8, ptr %23) #7
  call void @llvm.lifetime.start.p0(i64 8, ptr %24) #7
  call void @llvm.lifetime.start.p0(i64 4, ptr %25) #7
  %26 = load ptr, ptr %4, align 8, !tbaa !15
  %27 = call i32 @CVodeGetWorkSpace(ptr noundef %26, ptr noundef %7, ptr noundef %8)
  store i32 %27, ptr %25, align 4, !tbaa !4
  %28 = call i32 @check_retval(ptr noundef %25, ptr noundef @.str.39, i32 noundef 1)
  %29 = load ptr, ptr %4, align 8, !tbaa !15
  %30 = call i32 @CVodeGetNumSteps(ptr noundef %29, ptr noundef %11)
  store i32 %30, ptr %25, align 4, !tbaa !4
  %31 = call i32 @check_retval(ptr noundef %25, ptr noundef @.str.33, i32 noundef 1)
  %32 = load ptr, ptr %4, align 8, !tbaa !15
  %33 = call i32 @CVodeGetNumRhsEvals(ptr noundef %32, ptr noundef %12)
  store i32 %33, ptr %25, align 4, !tbaa !4
  %34 = call i32 @check_retval(ptr noundef %25, ptr noundef @.str.40, i32 noundef 1)
  %35 = load ptr, ptr %4, align 8, !tbaa !15
  %36 = call i32 @CVodeGetNumLinSolvSetups(ptr noundef %35, ptr noundef %13)
  store i32 %36, ptr %25, align 4, !tbaa !4
  %37 = call i32 @check_retval(ptr noundef %25, ptr noundef @.str.41, i32 noundef 1)
  %38 = load ptr, ptr %4, align 8, !tbaa !15
  %39 = call i32 @CVodeGetNumErrTestFails(ptr noundef %38, ptr noundef %16)
  store i32 %39, ptr %25, align 4, !tbaa !4
  %40 = call i32 @check_retval(ptr noundef %25, ptr noundef @.str.42, i32 noundef 1)
  %41 = load ptr, ptr %4, align 8, !tbaa !15
  %42 = call i32 @CVodeGetNumNonlinSolvIters(ptr noundef %41, ptr noundef %14)
  store i32 %42, ptr %25, align 4, !tbaa !4
  %43 = call i32 @check_retval(ptr noundef %25, ptr noundef @.str.43, i32 noundef 1)
  %44 = load ptr, ptr %4, align 8, !tbaa !15
  %45 = call i32 @CVodeGetNumNonlinSolvConvFails(ptr noundef %44, ptr noundef %15)
  store i32 %45, ptr %25, align 4, !tbaa !4
  %46 = call i32 @check_retval(ptr noundef %25, ptr noundef @.str.44, i32 noundef 1)
  %47 = load ptr, ptr %4, align 8, !tbaa !15
  %48 = call i32 @CVodeGetLinWorkSpace(ptr noundef %47, ptr noundef %9, ptr noundef %10)
  store i32 %48, ptr %25, align 4, !tbaa !4
  %49 = call i32 @check_retval(ptr noundef %25, ptr noundef @.str.45, i32 noundef 1)
  %50 = load ptr, ptr %4, align 8, !tbaa !15
  %51 = call i32 @CVodeGetLinSolveStats(ptr noundef %50, ptr noundef %17, ptr noundef %22, ptr noundef %18, ptr noundef %21, ptr noundef %19, ptr noundef %20, ptr noundef %23, ptr noundef %24)
  %52 = call i32 @check_retval(ptr noundef %25, ptr noundef @.str.45, i32 noundef 1)
  %53 = load i32, ptr %6, align 4, !tbaa !4
  %54 = icmp ne i32 %53, 0
  br i1 %54, label %55, label %57

55:                                               ; preds = %3
  %56 = call i32 (ptr, ...) @printf(ptr noundef @.str.46)
  br label %59

57:                                               ; preds = %3
  %58 = call i32 (ptr, ...) @printf(ptr noundef @.str.47)
  br label %59

59:                                               ; preds = %57, %55
  %60 = load i64, ptr %7, align 8, !tbaa !50
  %61 = load i64, ptr %8, align 8, !tbaa !50
  %62 = call i32 (ptr, ...) @printf(ptr noundef @.str.48, i64 noundef %60, i64 noundef %61)
  %63 = load i64, ptr %9, align 8, !tbaa !50
  %64 = load i64, ptr %10, align 8, !tbaa !50
  %65 = call i32 (ptr, ...) @printf(ptr noundef @.str.49, i64 noundef %63, i64 noundef %64)
  %66 = load i64, ptr %11, align 8, !tbaa !50
  %67 = call i32 (ptr, ...) @printf(ptr noundef @.str.50, i64 noundef %66)
  %68 = load i64, ptr %12, align 8, !tbaa !50
  %69 = load i64, ptr %22, align 8, !tbaa !50
  %70 = call i32 (ptr, ...) @printf(ptr noundef @.str.51, i64 noundef %68, i64 noundef %69)
  %71 = load i64, ptr %14, align 8, !tbaa !50
  %72 = load i64, ptr %18, align 8, !tbaa !50
  %73 = call i32 (ptr, ...) @printf(ptr noundef @.str.52, i64 noundef %71, i64 noundef %72)
  %74 = load i64, ptr %13, align 8, !tbaa !50
  %75 = load i64, ptr %16, align 8, !tbaa !50
  %76 = call i32 (ptr, ...) @printf(ptr noundef @.str.53, i64 noundef %74, i64 noundef %75)
  %77 = load i64, ptr %19, align 8, !tbaa !50
  %78 = load i64, ptr %20, align 8, !tbaa !50
  %79 = call i32 (ptr, ...) @printf(ptr noundef @.str.54, i64 noundef %77, i64 noundef %78)
  %80 = load i64, ptr %15, align 8, !tbaa !50
  %81 = load i64, ptr %21, align 8, !tbaa !50
  %82 = call i32 (ptr, ...) @printf(ptr noundef @.str.55, i64 noundef %80, i64 noundef %81)
  %83 = load i32, ptr %5, align 4, !tbaa !4
  %84 = icmp slt i32 %83, 2
  br i1 %84, label %85, label %87

85:                                               ; preds = %59
  %86 = call i32 (ptr, ...) @printf(ptr noundef @.str.56)
  br label %87

87:                                               ; preds = %85, %59
  call void @llvm.lifetime.end.p0(i64 4, ptr %25) #7
  call void @llvm.lifetime.end.p0(i64 8, ptr %24) #7
  call void @llvm.lifetime.end.p0(i64 8, ptr %23) #7
  call void @llvm.lifetime.end.p0(i64 8, ptr %22) #7
  call void @llvm.lifetime.end.p0(i64 8, ptr %21) #7
  call void @llvm.lifetime.end.p0(i64 8, ptr %20) #7
  call void @llvm.lifetime.end.p0(i64 8, ptr %19) #7
  call void @llvm.lifetime.end.p0(i64 8, ptr %18) #7
  call void @llvm.lifetime.end.p0(i64 8, ptr %17) #7
  call void @llvm.lifetime.end.p0(i64 8, ptr %16) #7
  call void @llvm.lifetime.end.p0(i64 8, ptr %15) #7
  call void @llvm.lifetime.end.p0(i64 8, ptr %14) #7
  call void @llvm.lifetime.end.p0(i64 8, ptr %13) #7
  call void @llvm.lifetime.end.p0(i64 8, ptr %12) #7
  call void @llvm.lifetime.end.p0(i64 8, ptr %11) #7
  call void @llvm.lifetime.end.p0(i64 8, ptr %10) #7
  call void @llvm.lifetime.end.p0(i64 8, ptr %9) #7
  call void @llvm.lifetime.end.p0(i64 8, ptr %8) #7
  call void @llvm.lifetime.end.p0(i64 8, ptr %7) #7
  ret void
}