; Function Attrs: nounwind uwtable
define internal fastcc void @PrintStats(ptr noundef %0, i32 noundef %1, i32 noundef range(i32 0, 2) %2) unnamed_addr #0 {
  %4 = alloca i64, align 8
  %5 = alloca i64, align 8
  %6 = alloca i64, align 8
  %7 = alloca i64, align 8
  %8 = alloca i64, align 8
  %9 = alloca i64, align 8
  %10 = alloca i64, align 8
  %11 = alloca i64, align 8
  %12 = alloca i64, align 8
  %13 = alloca i64, align 8
  %14 = alloca i64, align 8
  %15 = alloca i64, align 8
  %16 = alloca i64, align 8
  %17 = alloca i64, align 8
  %18 = alloca i64, align 8
  %19 = alloca i64, align 8
  %20 = alloca i64, align 8
  %21 = alloca i64, align 8
  call void @llvm.lifetime.start.p0(i64 8, ptr nonnull %4) #10
  call void @llvm.lifetime.start.p0(i64 8, ptr nonnull %5) #10
  call void @llvm.lifetime.start.p0(i64 8, ptr nonnull %6) #10
  call void @llvm.lifetime.start.p0(i64 8, ptr nonnull %7) #10
  call void @llvm.lifetime.start.p0(i64 8, ptr nonnull %8) #10
  call void @llvm.lifetime.start.p0(i64 8, ptr nonnull %9) #10
  call void @llvm.lifetime.start.p0(i64 8, ptr nonnull %10) #10
  call void @llvm.lifetime.start.p0(i64 8, ptr nonnull %11) #10
  call void @llvm.lifetime.start.p0(i64 8, ptr nonnull %12) #10
  call void @llvm.lifetime.start.p0(i64 8, ptr nonnull %13) #10
  call void @llvm.lifetime.start.p0(i64 8, ptr nonnull %14) #10
  call void @llvm.lifetime.start.p0(i64 8, ptr nonnull %15) #10
  call void @llvm.lifetime.start.p0(i64 8, ptr nonnull %16) #10
  call void @llvm.lifetime.start.p0(i64 8, ptr nonnull %17) #10
  call void @llvm.lifetime.start.p0(i64 8, ptr nonnull %18) #10
  call void @llvm.lifetime.start.p0(i64 8, ptr nonnull %19) #10
  call void @llvm.lifetime.start.p0(i64 8, ptr nonnull %20) #10
  call void @llvm.lifetime.start.p0(i64 8, ptr nonnull %21) #10
  %22 = call i32 @CVodeGetWorkSpace(ptr noundef %0, ptr noundef nonnull %4, ptr noundef nonnull %5) #10
  %23 = icmp slt i32 %22, 0
  br i1 %23, label %24, label %check_retval.exit

24:                                               ; preds = %3
  %25 = load ptr, ptr @stderr, align 8, !tbaa !9
  %26 = call i32 (ptr, ptr, ...) @fprintf(ptr noundef %25, ptr noundef nonnull @.str.58, ptr noundef nonnull @.str.39, i32 noundef %22) #11
  br label %check_retval.exit

check_retval.exit:                                ; preds = %3, %24
  %27 = call i32 @CVodeGetNumSteps(ptr noundef %0, ptr noundef nonnull %8) #10
  %28 = icmp slt i32 %27, 0
  br i1 %28, label %29, label %check_retval.exit13

29:                                               ; preds = %check_retval.exit
  %30 = load ptr, ptr @stderr, align 8, !tbaa !9
  %31 = call i32 (ptr, ptr, ...) @fprintf(ptr noundef %30, ptr noundef nonnull @.str.58, ptr noundef nonnull @.str.33, i32 noundef %27) #11
  br label %check_retval.exit13

check_retval.exit13:                              ; preds = %check_retval.exit, %29
  %32 = call i32 @CVodeGetNumRhsEvals(ptr noundef %0, ptr noundef nonnull %9) #10
  %33 = icmp slt i32 %32, 0
  br i1 %33, label %34, label %check_retval.exit15

34:                                               ; preds = %check_retval.exit13
  %35 = load ptr, ptr @stderr, align 8, !tbaa !9
  %36 = call i32 (ptr, ptr, ...) @fprintf(ptr noundef %35, ptr noundef nonnull @.str.58, ptr noundef nonnull @.str.40, i32 noundef %32) #11
  br label %check_retval.exit15

check_retval.exit15:                              ; preds = %check_retval.exit13, %34
  %37 = call i32 @CVodeGetNumLinSolvSetups(ptr noundef %0, ptr noundef nonnull %10) #10
  %38 = icmp slt i32 %37, 0
  br i1 %38, label %39, label %check_retval.exit17

39:                                               ; preds = %check_retval.exit15
  %40 = load ptr, ptr @stderr, align 8, !tbaa !9
  %41 = call i32 (ptr, ptr, ...) @fprintf(ptr noundef %40, ptr noundef nonnull @.str.58, ptr noundef nonnull @.str.41, i32 noundef %37) #11
  br label %check_retval.exit17

check_retval.exit17:                              ; preds = %check_retval.exit15, %39
  %42 = call i32 @CVodeGetNumErrTestFails(ptr noundef %0, ptr noundef nonnull %13) #10
  %43 = icmp slt i32 %42, 0
  br i1 %43, label %44, label %check_retval.exit19

44:                                               ; preds = %check_retval.exit17
  %45 = load ptr, ptr @stderr, align 8, !tbaa !9
  %46 = call i32 (ptr, ptr, ...) @fprintf(ptr noundef %45, ptr noundef nonnull @.str.58, ptr noundef nonnull @.str.42, i32 noundef %42) #11
  br label %check_retval.exit19

check_retval.exit19:                              ; preds = %check_retval.exit17, %44
  %47 = call i32 @CVodeGetNumNonlinSolvIters(ptr noundef %0, ptr noundef nonnull %11) #10
  %48 = icmp slt i32 %47, 0
  br i1 %48, label %49, label %check_retval.exit21

49:                                               ; preds = %check_retval.exit19
  %50 = load ptr, ptr @stderr, align 8, !tbaa !9
  %51 = call i32 (ptr, ptr, ...) @fprintf(ptr noundef %50, ptr noundef nonnull @.str.58, ptr noundef nonnull @.str.43, i32 noundef %47) #11
  br label %check_retval.exit21

check_retval.exit21:                              ; preds = %check_retval.exit19, %49
  %52 = call i32 @CVodeGetNumNonlinSolvConvFails(ptr noundef %0, ptr noundef nonnull %12) #10
  %53 = icmp slt i32 %52, 0
  br i1 %53, label %54, label %check_retval.exit23

54:                                               ; preds = %check_retval.exit21
  %55 = load ptr, ptr @stderr, align 8, !tbaa !9
  %56 = call i32 (ptr, ptr, ...) @fprintf(ptr noundef %55, ptr noundef nonnull @.str.58, ptr noundef nonnull @.str.44, i32 noundef %52) #11
  br label %check_retval.exit23

check_retval.exit23:                              ; preds = %check_retval.exit21, %54
  %57 = call i32 @CVodeGetLinWorkSpace(ptr noundef %0, ptr noundef nonnull %6, ptr noundef nonnull %7) #10
  %58 = icmp slt i32 %57, 0
  br i1 %58, label %60, label %check_retval.exit25

check_retval.exit25:                              ; preds = %check_retval.exit23
  %59 = call i32 @CVodeGetLinSolveStats(ptr noundef %0, ptr noundef nonnull %14, ptr noundef nonnull %19, ptr noundef nonnull %15, ptr noundef nonnull %18, ptr noundef nonnull %16, ptr noundef nonnull %17, ptr noundef nonnull %20, ptr noundef nonnull %21) #10
  br label %check_retval.exit27

60:                                               ; preds = %check_retval.exit23
  %61 = load ptr, ptr @stderr, align 8, !tbaa !9
  %62 = call i32 (ptr, ptr, ...) @fprintf(ptr noundef %61, ptr noundef nonnull @.str.58, ptr noundef nonnull @.str.45, i32 noundef %57) #11
  %63 = call i32 @CVodeGetLinSolveStats(ptr noundef %0, ptr noundef nonnull %14, ptr noundef nonnull %19, ptr noundef nonnull %15, ptr noundef nonnull %18, ptr noundef nonnull %16, ptr noundef nonnull %17, ptr noundef nonnull %20, ptr noundef nonnull %21) #10
  %64 = load ptr, ptr @stderr, align 8, !tbaa !9
  %65 = call i32 (ptr, ptr, ...) @fprintf(ptr noundef %64, ptr noundef nonnull @.str.58, ptr noundef nonnull @.str.45, i32 noundef %57) #11
  br label %check_retval.exit27

check_retval.exit27:                              ; preds = %check_retval.exit25, %60
  %.not = icmp eq i32 %2, 0
  %str.9.str.10 = select i1 %.not, ptr @str.9, ptr @str.10
  %puts = call i32 @puts(ptr nonnull dereferenceable(1) %str.9.str.10)
  %66 = load i64, ptr %4, align 8, !tbaa !37
  %67 = load i64, ptr %5, align 8, !tbaa !37
  %68 = call i32 (ptr, ...) @printf(ptr noundef nonnull dereferenceable(1) @.str.48, i64 noundef %66, i64 noundef %67)
  %69 = load i64, ptr %6, align 8, !tbaa !37
  %70 = load i64, ptr %7, align 8, !tbaa !37
  %71 = call i32 (ptr, ...) @printf(ptr noundef nonnull dereferenceable(1) @.str.49, i64 noundef %69, i64 noundef %70)
  %72 = load i64, ptr %8, align 8, !tbaa !37
  %73 = call i32 (ptr, ...) @printf(ptr noundef nonnull dereferenceable(1) @.str.50, i64 noundef %72)
  %74 = load i64, ptr %9, align 8, !tbaa !37
  %75 = load i64, ptr %19, align 8, !tbaa !37
  %76 = call i32 (ptr, ...) @printf(ptr noundef nonnull dereferenceable(1) @.str.51, i64 noundef %74, i64 noundef %75)
  %77 = load i64, ptr %11, align 8, !tbaa !37
  %78 = load i64, ptr %15, align 8, !tbaa !37
  %79 = call i32 (ptr, ...) @printf(ptr noundef nonnull dereferenceable(1) @.str.52, i64 noundef %77, i64 noundef %78)
  %80 = load i64, ptr %10, align 8, !tbaa !37
  %81 = load i64, ptr %13, align 8, !tbaa !37
  %82 = call i32 (ptr, ...) @printf(ptr noundef nonnull dereferenceable(1) @.str.53, i64 noundef %80, i64 noundef %81)
  %83 = load i64, ptr %16, align 8, !tbaa !37
  %84 = load i64, ptr %17, align 8, !tbaa !37
  %85 = call i32 (ptr, ...) @printf(ptr noundef nonnull dereferenceable(1) @.str.54, i64 noundef %83, i64 noundef %84)
  %86 = load i64, ptr %12, align 8, !tbaa !37
  %87 = load i64, ptr %18, align 8, !tbaa !37
  %88 = call i32 (ptr, ...) @printf(ptr noundef nonnull dereferenceable(1) @.str.55, i64 noundef %86, i64 noundef %87)
  %89 = icmp slt i32 %1, 2
  br i1 %89, label %90, label %91

90:                                               ; preds = %check_retval.exit27
  %puts11 = call i32 @puts(ptr nonnull dereferenceable(1) @str.11)
  br label %91

91:                                               ; preds = %90, %check_retval.exit27
  call void @llvm.lifetime.end.p0(i64 8, ptr nonnull %21) #10
  call void @llvm.lifetime.end.p0(i64 8, ptr nonnull %20) #10
  call void @llvm.lifetime.end.p0(i64 8, ptr nonnull %19) #10
  call void @llvm.lifetime.end.p0(i64 8, ptr nonnull %18) #10
  call void @llvm.lifetime.end.p0(i64 8, ptr nonnull %17) #10
  call void @llvm.lifetime.end.p0(i64 8, ptr nonnull %16) #10
  call void @llvm.lifetime.end.p0(i64 8, ptr nonnull %15) #10
  call void @llvm.lifetime.end.p0(i64 8, ptr nonnull %14) #10
  call void @llvm.lifetime.end.p0(i64 8, ptr nonnull %13) #10
  call void @llvm.lifetime.end.p0(i64 8, ptr nonnull %12) #10
  call void @llvm.lifetime.end.p0(i64 8, ptr nonnull %11) #10
  call void @llvm.lifetime.end.p0(i64 8, ptr nonnull %10) #10
  call void @llvm.lifetime.end.p0(i64 8, ptr nonnull %9) #10
  call void @llvm.lifetime.end.p0(i64 8, ptr nonnull %8) #10
  call void @llvm.lifetime.end.p0(i64 8, ptr nonnull %7) #10
  call void @llvm.lifetime.end.p0(i64 8, ptr nonnull %6) #10
  call void @llvm.lifetime.end.p0(i64 8, ptr nonnull %5) #10
  call void @llvm.lifetime.end.p0(i64 8, ptr nonnull %4) #10
  ret void
}